target datalayout = "e-m:e-p270:32:32-p271:32:32-p272:64:64-i64:64-i128:128-f80:128-n8:16:32:64-S128"
target triple = "x86_64-pc-linux-gnu"

%struct.FunctionCallInfoBaseData = type { ptr, ptr, ptr, i32, i8, i16, [0 x %struct.NullableDatum] }
%struct.NullableDatum = type { i64, i8 }

@.str.7 = private unnamed_addr constant [14 x i8] c"pgstatfuncs.c\00", align 1
@.str.38 = private unnamed_addr constant [28 x i8] c"invalid subscription OID %u\00", align 1
@__func__.pg_stat_reset_subscription_stats = private unnamed_addr constant [33 x i8] c"pg_stat_reset_subscription_stats\00", align 1

; Function Attrs: inlinehint nounwind uwtable
define internal i32 @DatumGetObjectId(i64 noundef %0) #2 {
  %2 = alloca i64, align 8
  store i64 %0, ptr %2, align 8
  %3 = load i64, ptr %2, align 8
  %4 = trunc i64 %3 to i32
  ret i32 %4
}

; Function Attrs: nounwind uwtable
define dso_local i64 @pg_stat_reset_subscription_stats(ptr noundef %0) #0 {
  %2 = alloca ptr, align 8
  %3 = alloca i32, align 4
  store ptr %0, ptr %2, align 8
  call void @llvm.lifetime.start.p0(i64 4, ptr %3) #10
  %4 = load ptr, ptr %2, align 8
  %5 = getelementptr inbounds nuw %struct.FunctionCallInfoBaseData, ptr %4, i32 0, i32 6
  %6 = getelementptr inbounds [0 x %struct.NullableDatum], ptr %5, i64 0, i64 0
  %7 = getelementptr inbounds nuw %struct.NullableDatum, ptr %6, i32 0, i32 1
  %8 = load i8, ptr %7, align 8, !range !8, !noundef !9
  %9 = trunc i8 %8 to i1
  br i1 %9, label %10, label %11

10:                                               ; preds = %1
  call void @pgstat_reset_of_kind(i32 noundef 5)
  br label %36

11:                                               ; preds = %1
  %12 = load ptr, ptr %2, align 8
  %13 = getelementptr inbounds nuw %struct.FunctionCallInfoBaseData, ptr %12, i32 0, i32 6
  %14 = getelementptr inbounds [0 x %struct.NullableDatum], ptr %13, i64 0, i64 0
  %15 = getelementptr inbounds nuw %struct.NullableDatum, ptr %14, i32 0, i32 0
  %16 = load i64, ptr %15, align 8
  %17 = call i32 @DatumGetObjectId(i64 noundef %16)
  store i32 %17, ptr %3, align 4
  %18 = load i32, ptr %3, align 4
  %19 = icmp ne i32 %18, 0
  br i1 %19, label %33, label %20

20:                                               ; preds = %11
  br label %21

21:                                               ; preds = %20
  br i1 true, label %22, label %24

22:                                               ; preds = %21
  %23 = call zeroext i1 @errstart_cold(i32 noundef 21, ptr noundef null) #11
  br i1 %23, label %26, label %30

24:                                               ; preds = %21
  %25 = call zeroext i1 @errstart(i32 noundef 21, ptr noundef null)
  br i1 %25, label %26, label %30

26:                                               ; preds = %24, %22
  %27 = call i32 @errcode(i32 noundef 50856066)
  %28 = load i32, ptr %3, align 4
  %29 = call i32 (ptr, ...) @errmsg(ptr noundef @.str.38, i32 noundef %28)
  call void @errfinish(ptr noundef @.str.7, i32 noundef 2015, ptr noundef @__func__.pg_stat_reset_subscription_stats)
  br label %30

30:                                               ; preds = %26, %24, %22
  unreachable

31:                                               ; No predecessors!
  br label %32

32:                                               ; preds = %31
  br label %33

33:                                               ; preds = %32, %11
  %34 = load i32, ptr %3, align 4
  %35 = zext i32 %34 to i64
  call void @pgstat_reset(i32 noundef 5, i32 noundef 0, i64 noundef %35)
  br label %36

36:                                               ; preds = %33, %10
  call void @llvm.lifetime.end.p0(i64 4, ptr %3) #10
  ret i64 0
}