; Function Attrs: nounwind uwtable
define dso_local noundef i64 @pg_stat_reset_subscription_stats(ptr noundef readonly captures(none) %0) local_unnamed_addr #0 {
  %2 = getelementptr inbounds nuw i8, ptr %0, i64 40
  %3 = load i8, ptr %2, align 8, !range !7, !noundef !8
  %4 = trunc nuw i8 %3 to i1
  br i1 %4, label %5, label %6

5:                                                ; preds = %1
  tail call void @pgstat_reset_of_kind(i32 noundef 5) #9
  br label %15

6:                                                ; preds = %1
  %7 = getelementptr inbounds nuw i8, ptr %0, i64 32
  %8 = load i64, ptr %7, align 8
  %9 = and i64 %8, 4294967295
  %.not = icmp eq i64 %9, 0
  br i1 %.not, label %10, label %14

10:                                               ; preds = %6
  %11 = tail call zeroext i1 @errstart_cold(i32 noundef 21, ptr noundef null) #10
  tail call void @llvm.assume(i1 %11)
  %12 = tail call i32 @errcode(i32 noundef 50856066) #9
  %13 = tail call i32 (ptr, ...) @errmsg(ptr noundef nonnull @.str.38, i32 noundef 0) #9
  tail call void @errfinish(ptr noundef nonnull @.str.7, i32 noundef 2015, ptr noundef nonnull @__func__.pg_stat_reset_subscription_stats) #9
  unreachable

14:                                               ; preds = %6
  tail call void @pgstat_reset(i32 noundef 5, i32 noundef 0, i64 noundef %9) #9
  br label %15

15:                                               ; preds = %14, %5
  ret i64 0
}